; Function Attrs: mustprogress nounwind uwtable
define hidden void @_ZN13TemplateTable16volatile_barrierEN9Assembler16Membar_mask_bitsE(i32 noundef %0) local_unnamed_addr #0 align 2 {
  %2 = load ptr, ptr @_ZN13TemplateTable5_masmE, align 8
  %3 = load i8, ptr @PrintInterpreter, align 1
  %4 = trunc i8 %3 to i1
  br i1 %4, label %5, label %_ZN12Disassembler4hookI25InterpreterMacroAssemblerEEPT_PKciS3_.exit

5:                                                ; preds = %1
  tail call void @_ZN12Disassembler5_hookEPKciP14MacroAssembler(ptr noundef nonnull @.str, i32 noundef 2654, ptr noundef %2) #8
  br label %_ZN12Disassembler4hookI25InterpreterMacroAssemblerEEPT_PKciS3_.exit

_ZN12Disassembler4hookI25InterpreterMacroAssemblerEEPT_PKciS3_.exit: ; preds = %1, %5
  tail call void @_ZN9Assembler6membarENS_16Membar_mask_bitsE(ptr noundef nonnull align 8 dereferenceable(40) %2, i32 noundef %0) #8
  ret void
}